target datalayout = "e-m:e-p270:32:32-p271:32:32-p272:64:64-i64:64-i128:128-f80:128-n8:16:32:64-S128"
target triple = "x86_64-pc-linux-gnu"

%"class.icu_77::UObject" = type { ptr }
%"class.icu_77::Calendar" = type <{ %"class.icu_77::UObject", [24 x i32], [24 x i8], i8, [7 x i8], double, ptr, i8, i16, i8, i32, i32, i32, i8, i8, i16, [4 x i8], ptr, ptr }>
%"class.icu_77::LocaleBased" = type { ptr, ptr }

; Function Attrs: inlinehint mustprogress nounwind uwtable
define linkonce_odr void @_ZN6icu_7711LocaleBasedC2ERPNS_10CharStringES3_(ptr noundef nonnull align 8 dereferenceable(16) %0, ptr noundef nonnull align 8 dereferenceable(8) %1, ptr noundef nonnull align 8 dereferenceable(8) %2) unnamed_addr #2 comdat align 2 {
  %4 = alloca ptr, align 8
  %5 = alloca ptr, align 8
  %6 = alloca ptr, align 8
  store ptr %0, ptr %4, align 8, !tbaa !81
  store ptr %1, ptr %5, align 8, !tbaa !83
  store ptr %2, ptr %6, align 8, !tbaa !83
  %7 = load ptr, ptr %4, align 8
  %8 = getelementptr inbounds nuw %"class.icu_77::LocaleBased", ptr %7, i32 0, i32 0
  %9 = load ptr, ptr %5, align 8, !tbaa !83
  store ptr %9, ptr %8, align 8, !tbaa !83
  %10 = getelementptr inbounds nuw %"class.icu_77::LocaleBased", ptr %7, i32 0, i32 1
  %11 = load ptr, ptr %6, align 8, !tbaa !83
  store ptr %11, ptr %10, align 8, !tbaa !83
  ret void
}

; Function Attrs: inlinehint mustprogress nounwind uwtable
define internal void @_ZL14uprv_arrayCopyPKaPai(ptr noundef %0, ptr noundef %1, i32 noundef %2) #2 {
  %4 = alloca ptr, align 8
  %5 = alloca ptr, align 8
  %6 = alloca i32, align 4
  store ptr %0, ptr %4, align 8, !tbaa !17
  store ptr %1, ptr %5, align 8, !tbaa !17
  store i32 %2, ptr %6, align 4, !tbaa !14
  br label %7

7:                                                ; preds = %3
  %8 = load ptr, ptr %5, align 8, !tbaa !17
  %9 = load ptr, ptr %4, align 8, !tbaa !17
  %10 = load i32, ptr %6, align 4, !tbaa !14
  %11 = sext i32 %10 to i64
  %12 = mul i64 %11, 1
  call void @llvm.memcpy.p0.p0.i64(ptr align 1 %8, ptr align 1 %9, i64 %12, i1 false)
  br label %13

13:                                               ; preds = %7
  ret void
}

; Function Attrs: inlinehint mustprogress nounwind uwtable
define internal void @_ZL14uprv_arrayCopyPKiPii(ptr noundef %0, ptr noundef %1, i32 noundef %2) #2 {
  %4 = alloca ptr, align 8
  %5 = alloca ptr, align 8
  %6 = alloca i32, align 4
  store ptr %0, ptr %4, align 8, !tbaa !20
  store ptr %1, ptr %5, align 8, !tbaa !20
  store i32 %2, ptr %6, align 4, !tbaa !14
  br label %7

7:                                                ; preds = %3
  %8 = load ptr, ptr %5, align 8, !tbaa !20
  %9 = load ptr, ptr %4, align 8, !tbaa !20
  %10 = load i32, ptr %6, align 4, !tbaa !14
  %11 = sext i32 %10 to i64
  %12 = mul i64 %11, 4
  call void @llvm.memcpy.p0.p0.i64(ptr align 4 %8, ptr align 4 %9, i64 %12, i1 false)
  br label %13

13:                                               ; preds = %7
  ret void
}

; Function Attrs: mustprogress uwtable
define noundef nonnull align 8 dereferenceable(192) ptr @_ZN6icu_778CalendaraSERKS0_(ptr noundef nonnull align 8 dereferenceable(192) %0, ptr noundef nonnull align 8 dereferenceable(192) %1) #1 align 2 {
  %3 = alloca ptr, align 8
  %4 = alloca ptr, align 8
  %5 = alloca i32, align 4
  %6 = alloca %"class.icu_77::LocaleBased", align 8
  store ptr %0, ptr %3, align 8, !tbaa !37
  store ptr %1, ptr %4, align 8, !tbaa !37
  %7 = load ptr, ptr %3, align 8
  %8 = load ptr, ptr %4, align 8, !tbaa !37
  %9 = icmp ne ptr %7, %8
  br i1 %9, label %10, label %197

10:                                               ; preds = %2
  %11 = load ptr, ptr %4, align 8, !tbaa !37
  %12 = getelementptr inbounds nuw %"class.icu_77::Calendar", ptr %11, i32 0, i32 1
  %13 = getelementptr inbounds [24 x i32], ptr %12, i64 0, i64 0
  %14 = getelementptr inbounds nuw %"class.icu_77::Calendar", ptr %7, i32 0, i32 1
  %15 = getelementptr inbounds [24 x i32], ptr %14, i64 0, i64 0
  call void @_ZL14uprv_arrayCopyPKiPii(ptr noundef %13, ptr noundef %15, i32 noundef 24)
  %16 = load ptr, ptr %4, align 8, !tbaa !37
  %17 = getelementptr inbounds nuw %"class.icu_77::Calendar", ptr %16, i32 0, i32 2
  %18 = getelementptr inbounds [24 x i8], ptr %17, i64 0, i64 0
  %19 = getelementptr inbounds nuw %"class.icu_77::Calendar", ptr %7, i32 0, i32 2
  %20 = getelementptr inbounds [24 x i8], ptr %19, i64 0, i64 0
  call void @_ZL14uprv_arrayCopyPKaPai(ptr noundef %18, ptr noundef %20, i32 noundef 24)
  %21 = load ptr, ptr %4, align 8, !tbaa !37
  %22 = getelementptr inbounds nuw %"class.icu_77::Calendar", ptr %21, i32 0, i32 5
  %23 = load double, ptr %22, align 8, !tbaa !63
  %24 = getelementptr inbounds nuw %"class.icu_77::Calendar", ptr %7, i32 0, i32 5
  store double %23, ptr %24, align 8, !tbaa !63
  %25 = load ptr, ptr %4, align 8, !tbaa !37
  %26 = getelementptr inbounds nuw %"class.icu_77::Calendar", ptr %25, i32 0, i32 7
  %27 = load i8, ptr %26, align 8
  %28 = and i8 %27, 1
  %29 = trunc i8 %28 to i1
  %30 = icmp ne i1 %29, false
  %31 = getelementptr inbounds nuw %"class.icu_77::Calendar", ptr %7, i32 0, i32 7
  %32 = zext i1 %30 to i8
  %33 = load i8, ptr %31, align 8
  %34 = and i8 %33, -2
  %35 = or i8 %34, %32
  store i8 %35, ptr %31, align 8
  %36 = load ptr, ptr %4, align 8, !tbaa !37
  %37 = getelementptr inbounds nuw %"class.icu_77::Calendar", ptr %36, i32 0, i32 7
  %38 = load i8, ptr %37, align 8
  %39 = lshr i8 %38, 2
  %40 = and i8 %39, 1
  %41 = trunc i8 %40 to i1
  %42 = icmp ne i1 %41, false
  %43 = getelementptr inbounds nuw %"class.icu_77::Calendar", ptr %7, i32 0, i32 7
  %44 = zext i1 %42 to i8
  %45 = load i8, ptr %43, align 8
  %46 = shl i8 %44, 2
  %47 = and i8 %45, -5
  %48 = or i8 %47, %46
  store i8 %48, ptr %43, align 8
  %49 = load ptr, ptr %4, align 8, !tbaa !37
  %50 = getelementptr inbounds nuw %"class.icu_77::Calendar", ptr %49, i32 0, i32 7
  %51 = load i8, ptr %50, align 8
  %52 = lshr i8 %51, 1
  %53 = and i8 %52, 1
  %54 = trunc i8 %53 to i1
  %55 = icmp ne i1 %54, false
  %56 = getelementptr inbounds nuw %"class.icu_77::Calendar", ptr %7, i32 0, i32 7
  %57 = zext i1 %55 to i8
  %58 = load i8, ptr %56, align 8
  %59 = shl i8 %57, 1
  %60 = and i8 %58, -3
  %61 = or i8 %60, %59
  store i8 %61, ptr %56, align 8
  %62 = load ptr, ptr %4, align 8, !tbaa !37
  %63 = getelementptr inbounds nuw %"class.icu_77::Calendar", ptr %62, i32 0, i32 7
  %64 = load i8, ptr %63, align 8
  %65 = lshr i8 %64, 3
  %66 = and i8 %65, 1
  %67 = trunc i8 %66 to i1
  %68 = icmp ne i1 %67, false
  %69 = getelementptr inbounds nuw %"class.icu_77::Calendar", ptr %7, i32 0, i32 7
  %70 = zext i1 %68 to i8
  %71 = load i8, ptr %69, align 8
  %72 = shl i8 %70, 3
  %73 = and i8 %71, -9
  %74 = or i8 %73, %72
  store i8 %74, ptr %69, align 8
  %75 = load ptr, ptr %4, align 8, !tbaa !37
  %76 = getelementptr inbounds nuw %"class.icu_77::Calendar", ptr %75, i32 0, i32 7
  %77 = load i8, ptr %76, align 8
  %78 = lshr i8 %77, 4
  %79 = and i8 %78, 1
  %80 = trunc i8 %79 to i1
  %81 = icmp ne i1 %80, false
  %82 = getelementptr inbounds nuw %"class.icu_77::Calendar", ptr %7, i32 0, i32 7
  %83 = zext i1 %81 to i8
  %84 = load i8, ptr %82, align 8
  %85 = shl i8 %83, 4
  %86 = and i8 %84, -17
  %87 = or i8 %86, %85
  store i8 %87, ptr %82, align 8
  %88 = load ptr, ptr %4, align 8, !tbaa !37
  %89 = getelementptr inbounds nuw %"class.icu_77::Calendar", ptr %88, i32 0, i32 7
  %90 = load i8, ptr %89, align 8
  %91 = lshr i8 %90, 5
  %92 = zext i8 %91 to i32
  %93 = getelementptr inbounds nuw %"class.icu_77::Calendar", ptr %7, i32 0, i32 7
  %94 = trunc i32 %92 to i8
  %95 = load i8, ptr %93, align 8
  %96 = and i8 %94, 7
  %97 = shl i8 %96, 5
  %98 = and i8 %95, 31
  %99 = or i8 %98, %97
  store i8 %99, ptr %93, align 8
  %100 = load ptr, ptr %4, align 8, !tbaa !37
  %101 = getelementptr inbounds nuw %"class.icu_77::Calendar", ptr %100, i32 0, i32 8
  %102 = load i16, ptr %101, align 1
  %103 = and i16 %102, 7
  %104 = zext i16 %103 to i32
  %105 = getelementptr inbounds nuw %"class.icu_77::Calendar", ptr %7, i32 0, i32 8
  %106 = trunc i32 %104 to i16
  %107 = load i16, ptr %105, align 1
  %108 = and i16 %106, 7
  %109 = and i16 %107, -8
  %110 = or i16 %109, %108
  store i16 %110, ptr %105, align 1
  %111 = getelementptr inbounds nuw %"class.icu_77::Calendar", ptr %7, i32 0, i32 6
  %112 = load ptr, ptr %111, align 8, !tbaa !64
  %113 = icmp eq ptr %112, null
  br i1 %113, label %118, label %114

114:                                              ; preds = %10
  %115 = load ptr, ptr %112, align 8, !tbaa !25
  %116 = getelementptr inbounds ptr, ptr %115, i64 1
  %117 = load ptr, ptr %116, align 8
  call void %117(ptr noundef nonnull align 8 dereferenceable(72) %112) #16
  br label %118

118:                                              ; preds = %114, %10
  %119 = getelementptr inbounds nuw %"class.icu_77::Calendar", ptr %7, i32 0, i32 6
  store ptr null, ptr %119, align 8, !tbaa !64
  %120 = load ptr, ptr %4, align 8, !tbaa !37
  %121 = getelementptr inbounds nuw %"class.icu_77::Calendar", ptr %120, i32 0, i32 6
  %122 = load ptr, ptr %121, align 8, !tbaa !64
  %123 = icmp ne ptr %122, null
  br i1 %123, label %124, label %133

124:                                              ; preds = %118
  %125 = load ptr, ptr %4, align 8, !tbaa !37
  %126 = getelementptr inbounds nuw %"class.icu_77::Calendar", ptr %125, i32 0, i32 6
  %127 = load ptr, ptr %126, align 8, !tbaa !64
  %128 = load ptr, ptr %127, align 8, !tbaa !25
  %129 = getelementptr inbounds ptr, ptr %128, i64 12
  %130 = load ptr, ptr %129, align 8
  %131 = call noundef ptr %130(ptr noundef nonnull align 8 dereferenceable(72) %127)
  %132 = getelementptr inbounds nuw %"class.icu_77::Calendar", ptr %7, i32 0, i32 6
  store ptr %131, ptr %132, align 8, !tbaa !64
  br label %133

133:                                              ; preds = %124, %118
  %134 = load ptr, ptr %4, align 8, !tbaa !37
  %135 = getelementptr inbounds nuw %"class.icu_77::Calendar", ptr %134, i32 0, i32 8
  %136 = load i16, ptr %135, align 1
  %137 = lshr i16 %136, 3
  %138 = and i16 %137, 15
  %139 = zext i16 %138 to i32
  %140 = getelementptr inbounds nuw %"class.icu_77::Calendar", ptr %7, i32 0, i32 8
  %141 = trunc i32 %139 to i16
  %142 = load i16, ptr %140, align 1
  %143 = and i16 %141, 15
  %144 = shl i16 %143, 3
  %145 = and i16 %142, -121
  %146 = or i16 %145, %144
  store i16 %146, ptr %140, align 1
  %147 = load ptr, ptr %4, align 8, !tbaa !37
  %148 = getelementptr inbounds nuw %"class.icu_77::Calendar", ptr %147, i32 0, i32 9
  %149 = load i8, ptr %148, align 1, !tbaa !67
  %150 = getelementptr inbounds nuw %"class.icu_77::Calendar", ptr %7, i32 0, i32 9
  store i8 %149, ptr %150, align 1, !tbaa !67
  %151 = load ptr, ptr %4, align 8, !tbaa !37
  %152 = getelementptr inbounds nuw %"class.icu_77::Calendar", ptr %151, i32 0, i32 8
  %153 = load i16, ptr %152, align 1
  %154 = lshr i16 %153, 7
  %155 = and i16 %154, 15
  %156 = zext i16 %155 to i32
  %157 = getelementptr inbounds nuw %"class.icu_77::Calendar", ptr %7, i32 0, i32 8
  %158 = trunc i32 %156 to i16
  %159 = load i16, ptr %157, align 1
  %160 = and i16 %158, 15
  %161 = shl i16 %160, 7
  %162 = and i16 %159, -1921
  %163 = or i16 %162, %161
  store i16 %163, ptr %157, align 1
  %164 = load ptr, ptr %4, align 8, !tbaa !37
  %165 = getelementptr inbounds nuw %"class.icu_77::Calendar", ptr %164, i32 0, i32 10
  %166 = load i32, ptr %165, align 4, !tbaa !68
  %167 = getelementptr inbounds nuw %"class.icu_77::Calendar", ptr %7, i32 0, i32 10
  store i32 %166, ptr %167, align 4, !tbaa !68
  %168 = load ptr, ptr %4, align 8, !tbaa !37
  %169 = getelementptr inbounds nuw %"class.icu_77::Calendar", ptr %168, i32 0, i32 8
  %170 = load i16, ptr %169, align 1
  %171 = lshr i16 %170, 11
  %172 = and i16 %171, 15
  %173 = zext i16 %172 to i32
  %174 = getelementptr inbounds nuw %"class.icu_77::Calendar", ptr %7, i32 0, i32 8
  %175 = trunc i32 %173 to i16
  %176 = load i16, ptr %174, align 1
  %177 = and i16 %175, 15
  %178 = shl i16 %177, 11
  %179 = and i16 %176, -30721
  %180 = or i16 %179, %178
  store i16 %180, ptr %174, align 1
  %181 = load ptr, ptr %4, align 8, !tbaa !37
  %182 = getelementptr inbounds nuw %"class.icu_77::Calendar", ptr %181, i32 0, i32 11
  %183 = load i32, ptr %182, align 8, !tbaa !69
  %184 = getelementptr inbounds nuw %"class.icu_77::Calendar", ptr %7, i32 0, i32 11
  store i32 %183, ptr %184, align 8, !tbaa !69
  %185 = load ptr, ptr %4, align 8, !tbaa !37
  %186 = getelementptr inbounds nuw %"class.icu_77::Calendar", ptr %185, i32 0, i32 3
  %187 = load i8, ptr %186, align 8, !tbaa !54
  %188 = getelementptr inbounds nuw %"class.icu_77::Calendar", ptr %7, i32 0, i32 3
  store i8 %187, ptr %188, align 8, !tbaa !54
  call void @llvm.lifetime.start.p0(i64 4, ptr %5) #16
  store i32 0, ptr %5, align 4, !tbaa !15
  call void @llvm.lifetime.start.p0(i64 16, ptr %6) #16
  %189 = getelementptr inbounds nuw %"class.icu_77::Calendar", ptr %7, i32 0, i32 17
  %190 = getelementptr inbounds nuw %"class.icu_77::Calendar", ptr %7, i32 0, i32 18
  call void @_ZN6icu_7711LocaleBasedC2ERPNS_10CharStringES3_(ptr noundef nonnull align 8 dereferenceable(16) %6, ptr noundef nonnull align 8 dereferenceable(8) %189, ptr noundef nonnull align 8 dereferenceable(8) %190)
  %191 = load ptr, ptr %4, align 8, !tbaa !37
  %192 = getelementptr inbounds nuw %"class.icu_77::Calendar", ptr %191, i32 0, i32 17
  %193 = load ptr, ptr %192, align 8, !tbaa !65
  %194 = load ptr, ptr %4, align 8, !tbaa !37
  %195 = getelementptr inbounds nuw %"class.icu_77::Calendar", ptr %194, i32 0, i32 18
  %196 = load ptr, ptr %195, align 8, !tbaa !66
  call void @_ZN6icu_7711LocaleBased12setLocaleIDsEPKNS_10CharStringES3_R10UErrorCode(ptr noundef nonnull align 8 dereferenceable(16) %6, ptr noundef %193, ptr noundef %196, ptr noundef nonnull align 4 dereferenceable(4) %5)
  call void @llvm.lifetime.end.p0(i64 16, ptr %6) #16
  call void @llvm.lifetime.end.p0(i64 4, ptr %5) #16
  br label %197

197:                                              ; preds = %133, %2
  ret ptr %7
}