; Function Attrs: mustprogress uwtable
define noundef nonnull align 8 dereferenceable(192) ptr @_ZN6icu_778CalendaraSERKS0_(ptr noundef nonnull returned align 8 dereferenceable(192) %0, ptr noundef nonnull readonly align 8 dereferenceable(192) %1) local_unnamed_addr #1 align 2 {
  %3 = alloca i32, align 4
  %4 = alloca %"class.icu_77::LocaleBased", align 8
  %.not = icmp eq ptr %0, %1
  br i1 %.not, label %91, label %5

5:                                                ; preds = %2
  %6 = getelementptr inbounds nuw i8, ptr %1, i64 8
  %7 = getelementptr inbounds nuw i8, ptr %0, i64 8
  tail call void @llvm.memcpy.p0.p0.i64(ptr noundef nonnull align 8 dereferenceable(96) %7, ptr noundef nonnull readonly align 8 dereferenceable(96) %6, i64 96, i1 false)
  %8 = getelementptr inbounds nuw i8, ptr %1, i64 104
  %9 = getelementptr inbounds nuw i8, ptr %0, i64 104
  tail call void @llvm.memcpy.p0.p0.i64(ptr noundef nonnull align 8 dereferenceable(24) %9, ptr noundef nonnull readonly align 8 dereferenceable(24) %8, i64 24, i1 false)
  %10 = getelementptr inbounds nuw i8, ptr %1, i64 136
  %11 = load double, ptr %10, align 8, !tbaa !53
  %12 = getelementptr inbounds nuw i8, ptr %0, i64 136
  store double %11, ptr %12, align 8, !tbaa !53
  %13 = getelementptr inbounds nuw i8, ptr %1, i64 152
  %14 = load i8, ptr %13, align 8
  %15 = getelementptr inbounds nuw i8, ptr %0, i64 152
  %16 = and i8 %14, 1
  %17 = load i8, ptr %15, align 8
  %18 = and i8 %17, -2
  %19 = or disjoint i8 %18, %16
  store i8 %19, ptr %15, align 8
  %20 = load i8, ptr %13, align 8
  %.lobit = and i8 %20, 4
  %21 = and i8 %19, -5
  %22 = or disjoint i8 %21, %.lobit
  store i8 %22, ptr %15, align 8
  %23 = load i8, ptr %13, align 8
  %.lobit26 = and i8 %23, 2
  %24 = and i8 %22, -3
  %25 = or disjoint i8 %24, %.lobit26
  store i8 %25, ptr %15, align 8
  %26 = load i8, ptr %13, align 8
  %.lobit27 = and i8 %26, 8
  %27 = and i8 %25, -9
  %28 = or disjoint i8 %27, %.lobit27
  store i8 %28, ptr %15, align 8
  %29 = load i8, ptr %13, align 8
  %.lobit28 = and i8 %29, 16
  %30 = and i8 %28, -17
  %31 = or disjoint i8 %30, %.lobit28
  store i8 %31, ptr %15, align 8
  %32 = load i8, ptr %13, align 8
  %33 = and i8 %32, -32
  %34 = and i8 %31, 31
  %35 = or disjoint i8 %34, %33
  store i8 %35, ptr %15, align 8
  %36 = getelementptr inbounds nuw i8, ptr %1, i64 153
  %37 = load i16, ptr %36, align 1
  %38 = and i16 %37, 7
  %39 = getelementptr inbounds nuw i8, ptr %0, i64 153
  %40 = load i16, ptr %39, align 1
  %41 = and i16 %40, -8
  %42 = or disjoint i16 %41, %38
  store i16 %42, ptr %39, align 1
  %43 = getelementptr inbounds nuw i8, ptr %0, i64 144
  %44 = load ptr, ptr %43, align 8, !tbaa !41
  %45 = icmp eq ptr %44, null
  br i1 %45, label %50, label %46

46:                                               ; preds = %5
  %47 = load ptr, ptr %44, align 8, !tbaa !15
  %48 = getelementptr inbounds nuw i8, ptr %47, i64 8
  %49 = load ptr, ptr %48, align 8
  tail call void %49(ptr noundef nonnull align 8 dereferenceable(72) %44) #25
  br label %50

50:                                               ; preds = %46, %5
  store ptr null, ptr %43, align 8, !tbaa !41
  %51 = getelementptr inbounds nuw i8, ptr %1, i64 144
  %52 = load ptr, ptr %51, align 8, !tbaa !41
  %.not29 = icmp eq ptr %52, null
  br i1 %.not29, label %58, label %53

53:                                               ; preds = %50
  %54 = load ptr, ptr %52, align 8, !tbaa !15
  %55 = getelementptr inbounds nuw i8, ptr %54, i64 96
  %56 = load ptr, ptr %55, align 8
  %57 = tail call noundef ptr %56(ptr noundef nonnull align 8 dereferenceable(72) %52)
  store ptr %57, ptr %43, align 8, !tbaa !41
  br label %58

58:                                               ; preds = %53, %50
  %59 = load i16, ptr %36, align 1
  %60 = and i16 %59, 120
  %61 = load i16, ptr %39, align 1
  %62 = and i16 %61, -121
  %63 = or disjoint i16 %62, %60
  store i16 %63, ptr %39, align 1
  %64 = getelementptr inbounds nuw i8, ptr %1, i64 155
  %65 = load i8, ptr %64, align 1, !tbaa !27
  %66 = getelementptr inbounds nuw i8, ptr %0, i64 155
  store i8 %65, ptr %66, align 1, !tbaa !27
  %67 = load i16, ptr %36, align 1
  %68 = and i16 %67, 1920
  %69 = and i16 %63, -1921
  %70 = or disjoint i16 %68, %69
  store i16 %70, ptr %39, align 1
  %71 = getelementptr inbounds nuw i8, ptr %1, i64 156
  %72 = load i32, ptr %71, align 4, !tbaa !42
  %73 = getelementptr inbounds nuw i8, ptr %0, i64 156
  store i32 %72, ptr %73, align 4, !tbaa !42
  %74 = load i16, ptr %36, align 1
  %75 = and i16 %74, 30720
  %76 = and i16 %70, -30721
  %77 = or disjoint i16 %75, %76
  store i16 %77, ptr %39, align 1
  %78 = getelementptr inbounds nuw i8, ptr %1, i64 160
  %79 = load i32, ptr %78, align 8, !tbaa !43
  %80 = getelementptr inbounds nuw i8, ptr %0, i64 160
  store i32 %79, ptr %80, align 8, !tbaa !43
  %81 = getelementptr inbounds nuw i8, ptr %1, i64 128
  %82 = load i8, ptr %81, align 8, !tbaa !40
  %83 = getelementptr inbounds nuw i8, ptr %0, i64 128
  store i8 %82, ptr %83, align 8, !tbaa !40
  call void @llvm.lifetime.start.p0(i64 4, ptr nonnull %3) #25
  store i32 0, ptr %3, align 4, !tbaa !13
  call void @llvm.lifetime.start.p0(i64 16, ptr nonnull %4) #25
  %84 = getelementptr inbounds nuw i8, ptr %0, i64 176
  %85 = getelementptr inbounds nuw i8, ptr %0, i64 184
  store ptr %84, ptr %4, align 8, !tbaa !48
  %86 = getelementptr inbounds nuw i8, ptr %4, i64 8
  store ptr %85, ptr %86, align 8, !tbaa !48
  %87 = getelementptr inbounds nuw i8, ptr %1, i64 176
  %88 = load ptr, ptr %87, align 8, !tbaa !52
  %89 = getelementptr inbounds nuw i8, ptr %1, i64 184
  %90 = load ptr, ptr %89, align 8, !tbaa !51
  call void @_ZN6icu_7711LocaleBased12setLocaleIDsEPKNS_10CharStringES3_R10UErrorCode(ptr noundef nonnull align 8 dereferenceable(16) %4, ptr noundef %88, ptr noundef %90, ptr noundef nonnull align 4 dereferenceable(4) %3)
  call void @llvm.lifetime.end.p0(i64 16, ptr nonnull %4) #25
  call void @llvm.lifetime.end.p0(i64 4, ptr nonnull %3) #25
  br label %91

91:                                               ; preds = %58, %2
  ret ptr %0
}